target datalayout = "e-m:e-p270:32:32-p271:32:32-p272:64:64-i64:64-i128:128-f80:128-n8:16:32:64-S128"
target triple = "x86_64-pc-linux-gnu"

%struct.prov_rc4_hmac_md5_ctx_st = type { %struct.prov_cipher_ctx_st, %union.anon.0, %struct.MD5state_st, %struct.MD5state_st, %struct.MD5state_st, i64, i64 }
%struct.prov_cipher_ctx_st = type { [16 x i8], [16 x i8], [16 x i8], ptr, %union.anon, i32, i64, i64, i64, i64, i32, i8, i32, ptr, i32, i64, i32, i64, i32, ptr, ptr, ptr }
%union.anon = type { ptr }
%union.anon.0 = type { double, [1024 x i8] }
%struct.MD5state_st = type { i32, i32, i32, i32, i32, i32, [16 x i32], i32 }

; Function Attrs: nounwind uwtable
define internal i32 @cipher_hw_rc4_hmac_md5_tls_init(ptr noundef %0, ptr noundef %1, i64 noundef %2) #0 {
  %4 = alloca i32, align 4
  %5 = alloca ptr, align 8
  %6 = alloca ptr, align 8
  %7 = alloca i64, align 8
  %8 = alloca ptr, align 8
  %9 = alloca i32, align 4
  %10 = alloca i32, align 4
  store ptr %0, ptr %5, align 8, !tbaa !7
  store ptr %1, ptr %6, align 8, !tbaa !10
  store i64 %2, ptr %7, align 8, !tbaa !3
  call void @llvm.lifetime.start.p0(i64 8, ptr %8) #5
  %11 = load ptr, ptr %5, align 8, !tbaa !7
  store ptr %11, ptr %8, align 8, !tbaa !12
  call void @llvm.lifetime.start.p0(i64 4, ptr %9) #5
  %12 = load i64, ptr %7, align 8, !tbaa !3
  %13 = icmp ne i64 %12, 13
  br i1 %13, label %14, label %15

14:                                               ; preds = %3
  store i32 0, ptr %4, align 4
  store i32 1, ptr %10, align 4
  br label %71

15:                                               ; preds = %3
  %16 = load ptr, ptr %6, align 8, !tbaa !10
  %17 = load i64, ptr %7, align 8, !tbaa !3
  %18 = sub i64 %17, 2
  %19 = getelementptr inbounds nuw i8, ptr %16, i64 %18
  %20 = load i8, ptr %19, align 1, !tbaa !17
  %21 = zext i8 %20 to i32
  %22 = shl i32 %21, 8
  %23 = load ptr, ptr %6, align 8, !tbaa !10
  %24 = load i64, ptr %7, align 8, !tbaa !3
  %25 = sub i64 %24, 1
  %26 = getelementptr inbounds nuw i8, ptr %23, i64 %25
  %27 = load i8, ptr %26, align 1, !tbaa !17
  %28 = zext i8 %27 to i32
  %29 = or i32 %22, %28
  store i32 %29, ptr %9, align 4, !tbaa !15
  %30 = load ptr, ptr %5, align 8, !tbaa !7
  %31 = getelementptr inbounds nuw %struct.prov_cipher_ctx_st, ptr %30, i32 0, i32 11
  %32 = load i8, ptr %31, align 4
  %33 = lshr i8 %32, 1
  %34 = and i8 %33, 1
  %35 = zext i8 %34 to i32
  %36 = icmp ne i32 %35, 0
  br i1 %36, label %57, label %37

37:                                               ; preds = %15
  %38 = load i32, ptr %9, align 4, !tbaa !15
  %39 = icmp ult i32 %38, 16
  br i1 %39, label %40, label %41

40:                                               ; preds = %37
  store i32 0, ptr %4, align 4
  store i32 1, ptr %10, align 4
  br label %71

41:                                               ; preds = %37
  %42 = load i32, ptr %9, align 4, !tbaa !15
  %43 = sub i32 %42, 16
  store i32 %43, ptr %9, align 4, !tbaa !15
  %44 = load i32, ptr %9, align 4, !tbaa !15
  %45 = lshr i32 %44, 8
  %46 = trunc i32 %45 to i8
  %47 = load ptr, ptr %6, align 8, !tbaa !10
  %48 = load i64, ptr %7, align 8, !tbaa !3
  %49 = sub i64 %48, 2
  %50 = getelementptr inbounds nuw i8, ptr %47, i64 %49
  store i8 %46, ptr %50, align 1, !tbaa !17
  %51 = load i32, ptr %9, align 4, !tbaa !15
  %52 = trunc i32 %51 to i8
  %53 = load ptr, ptr %6, align 8, !tbaa !10
  %54 = load i64, ptr %7, align 8, !tbaa !3
  %55 = sub i64 %54, 1
  %56 = getelementptr inbounds nuw i8, ptr %53, i64 %55
  store i8 %52, ptr %56, align 1, !tbaa !17
  br label %57

57:                                               ; preds = %41, %15
  %58 = load i32, ptr %9, align 4, !tbaa !15
  %59 = zext i32 %58 to i64
  %60 = load ptr, ptr %8, align 8, !tbaa !12
  %61 = getelementptr inbounds nuw %struct.prov_rc4_hmac_md5_ctx_st, ptr %60, i32 0, i32 5
  store i64 %59, ptr %61, align 8, !tbaa !18
  %62 = load ptr, ptr %8, align 8, !tbaa !12
  %63 = getelementptr inbounds nuw %struct.prov_rc4_hmac_md5_ctx_st, ptr %62, i32 0, i32 4
  %64 = load ptr, ptr %8, align 8, !tbaa !12
  %65 = getelementptr inbounds nuw %struct.prov_rc4_hmac_md5_ctx_st, ptr %64, i32 0, i32 2
  call void @llvm.memcpy.p0.p0.i64(ptr align 8 %63, ptr align 8 %65, i64 92, i1 false), !tbaa.struct !14
  %66 = load ptr, ptr %8, align 8, !tbaa !12
  %67 = getelementptr inbounds nuw %struct.prov_rc4_hmac_md5_ctx_st, ptr %66, i32 0, i32 4
  %68 = load ptr, ptr %6, align 8, !tbaa !10
  %69 = load i64, ptr %7, align 8, !tbaa !3
  %70 = call i32 @MD5_Update(ptr noundef %67, ptr noundef %68, i64 noundef %69)
  store i32 16, ptr %4, align 4
  store i32 1, ptr %10, align 4
  br label %71

71:                                               ; preds = %57, %40, %14
  call void @llvm.lifetime.end.p0(i64 4, ptr %9) #5
  call void @llvm.lifetime.end.p0(i64 8, ptr %8) #5
  %72 = load i32, ptr %4, align 4
  ret i32 %72
}