; Function Attrs: nounwind uwtable
define internal range(i32 0, 17) i32 @cipher_hw_rc4_hmac_md5_tls_init(ptr noundef %0, ptr noundef %1, i64 noundef %2) #1 {
  %.not = icmp eq i64 %2, 13
  br i1 %.not, label %4, label %29

4:                                                ; preds = %3
  %5 = getelementptr inbounds nuw i8, ptr %1, i64 11
  %6 = load i8, ptr %5, align 1, !tbaa !8
  %7 = zext i8 %6 to i32
  %8 = shl nuw nsw i32 %7, 8
  %9 = getelementptr inbounds nuw i8, ptr %1, i64 12
  %10 = load i8, ptr %9, align 1, !tbaa !8
  %11 = zext i8 %10 to i32
  %12 = or disjoint i32 %8, %11
  %13 = getelementptr inbounds nuw i8, ptr %0, i64 108
  %14 = load i8, ptr %13, align 4
  %15 = and i8 %14, 2
  %.not25 = icmp eq i8 %15, 0
  br i1 %.not25, label %16, label %23

16:                                               ; preds = %4
  %17 = icmp samesign ult i32 %12, 16
  br i1 %17, label %29, label %18

18:                                               ; preds = %16
  %19 = add nsw i32 %12, -16
  %20 = lshr i32 %19, 8
  %21 = trunc nuw i32 %20 to i8
  store i8 %21, ptr %5, align 1, !tbaa !8
  %22 = trunc i32 %19 to i8
  store i8 %22, ptr %9, align 1, !tbaa !8
  br label %23

23:                                               ; preds = %18, %4
  %.0 = phi i32 [ %12, %4 ], [ %19, %18 ]
  %24 = zext nneg i32 %.0 to i64
  %25 = getelementptr inbounds nuw i8, ptr %0, i64 1504
  store i64 %24, ptr %25, align 8, !tbaa !9
  %26 = getelementptr inbounds nuw i8, ptr %0, i64 1408
  %27 = getelementptr inbounds nuw i8, ptr %0, i64 1224
  tail call void @llvm.memcpy.p0.p0.i64(ptr noundef nonnull align 8 dereferenceable(92) %26, ptr noundef nonnull align 8 dereferenceable(92) %27, i64 92, i1 false), !tbaa.struct !3
  %28 = tail call i32 @MD5_Update(ptr noundef nonnull %26, ptr noundef nonnull %1, i64 noundef 13) #6
  br label %29

29:                                               ; preds = %16, %3, %23
  %.022 = phi i32 [ 16, %23 ], [ 0, %3 ], [ 0, %16 ]
  ret i32 %.022
}